target datalayout = "e-m:e-p270:32:32-p271:32:32-p272:64:64-i64:64-i128:128-f80:128-n8:16:32:64-S128"
target triple = "x86_64-unknown-linux-gnu"

%"class.v8::IndirectHandleBase" = type { ptr }
%"class.v8::HandleScope" = type { ptr, ptr, ptr }
%"class.v8::Local.252" = type { %"class.v8::LocalBase.253" }
%"class.v8::LocalBase.253" = type { %"class.v8::IndirectHandleBase" }
%"class.v8::Local.316" = type { %"class.v8::LocalBase.317" }
%"class.v8::LocalBase.317" = type { %"class.v8::IndirectHandleBase" }
%"class.v8::MaybeLocal" = type { %"class.v8::Local.316" }
%"class.v8::EscapableHandleScope" = type { %"class.v8::HandleScope", ptr }
%"class.v8::MaybeLocal.330" = type { %"class.v8::Local.252" }
%"class.v8::MaybeLocal.331" = type { %"class.v8::Local.324" }
%"class.v8::Local.324" = type { %"class.v8::LocalBase.325" }
%"class.v8::LocalBase.325" = type { %"class.v8::IndirectHandleBase" }
%"struct.v8::DeserializeInternalFieldsCallback" = type { ptr, ptr }
%"class.v8::Maybe" = type { i8, i8 }

; Function Attrs: mustprogress nounwind uwtable
define linkonce_odr dso_local void @_ZN2v833DeserializeInternalFieldsCallbackC2EPFvNS_5LocalINS_6ObjectEEEiNS_11StartupDataEPvES5_(ptr noundef nonnull align 8 dereferenceable(16) %this, ptr noundef %function, ptr noundef %data_arg) unnamed_addr #4 comdat align 2 {
entry:
  %this.addr = alloca ptr, align 8
  %function.addr = alloca ptr, align 8
  %data_arg.addr = alloca ptr, align 8
  store ptr %this, ptr %this.addr, align 8
  store ptr %function, ptr %function.addr, align 8
  store ptr %data_arg, ptr %data_arg.addr, align 8
  %this1 = load ptr, ptr %this.addr, align 8
  %callback = getelementptr inbounds %"struct.v8::DeserializeInternalFieldsCallback", ptr %this1, i32 0, i32 0
  %0 = load ptr, ptr %function.addr, align 8
  store ptr %0, ptr %callback, align 8
  %data = getelementptr inbounds %"struct.v8::DeserializeInternalFieldsCallback", ptr %this1, i32 0, i32 1
  %1 = load ptr, ptr %data_arg.addr, align 8
  store ptr %1, ptr %data, align 8
  ret void
}

; Function Attrs: mustprogress nounwind uwtable
define dso_local ptr @_ZN4node10contextify17ContextifyContext15CreateV8ContextEPN2v87IsolateENS2_5LocalINS2_14ObjectTemplateEEEPKNS_12SnapshotDataEPNS2_14MicrotaskQueueE(ptr noundef %isolate, ptr %object_template.coerce, ptr noundef %snapshot_data, ptr noundef %queue) #4 align 2 {
entry:
  %this.addr.i.i.i = alloca ptr, align 8
  %location.addr.i.i.i = alloca ptr, align 8
  %this.addr.i.i120 = alloca ptr, align 8
  %location.addr.i.i = alloca ptr, align 8
  %retval.i121 = alloca %"class.v8::LocalBase.317", align 8
  %slot.addr.i122 = alloca ptr, align 8
  %this.addr.i.i117 = alloca ptr, align 8
  %other.addr.i.i = alloca ptr, align 8
  %retval.i118 = alloca %"class.v8::Local.316", align 8
  %slot.addr.i = alloca ptr, align 8
  %ref.tmp.i = alloca %"class.v8::LocalBase.317", align 8
  %this.addr.i.i113 = alloca ptr, align 8
  %this.addr.i114 = alloca ptr, align 8
  %this.addr.i.i109 = alloca ptr, align 8
  %this.addr.i110 = alloca ptr, align 8
  %this.addr.i.i105 = alloca ptr, align 8
  %this.addr.i106 = alloca ptr, align 8
  %this.addr.i.i101 = alloca ptr, align 8
  %this.addr.i102 = alloca ptr, align 8
  %this.addr.i99 = alloca ptr, align 8
  %this.addr.i.i95 = alloca ptr, align 8
  %this.addr.i96 = alloca ptr, align 8
  %this.addr.i.i91 = alloca ptr, align 8
  %this.addr.i92 = alloca ptr, align 8
  %this.addr.i89 = alloca ptr, align 8
  %that.i86 = alloca %"class.v8::Local.316", align 8
  %this.addr.i87 = alloca ptr, align 8
  %retval.i = alloca %"class.v8::Local.316", align 8
  %value.i = alloca %"class.v8::Local.316", align 8
  %this.addr.i83 = alloca ptr, align 8
  %this.addr.i.i79 = alloca ptr, align 8
  %this.addr.i80 = alloca ptr, align 8
  %this.addr.i.i75 = alloca ptr, align 8
  %this.addr.i76 = alloca ptr, align 8
  %this.addr.i72 = alloca ptr, align 8
  %this.addr.i70 = alloca ptr, align 8
  %this.addr.i.i66 = alloca ptr, align 8
  %this.addr.i67 = alloca ptr, align 8
  %this.addr.i.i = alloca ptr, align 8
  %this.addr.i64 = alloca ptr, align 8
  %that.i = alloca %"class.v8::Local.252", align 8
  %this.addr.i63 = alloca ptr, align 8
  %this.addr.i61 = alloca ptr, align 8
  %out.addr.i = alloca ptr, align 8
  %this.addr.i = alloca ptr, align 8
  %retval = alloca %"class.v8::MaybeLocal", align 8
  %object_template = alloca %"class.v8::Local.252", align 8
  %isolate.addr = alloca ptr, align 8
  %snapshot_data.addr = alloca ptr, align 8
  %queue.addr = alloca ptr, align 8
  %scope = alloca %"class.v8::EscapableHandleScope", align 8
  %ctx = alloca %"class.v8::Local.316", align 8
  %ref.tmp = alloca %"class.v8::Local.316", align 8
  %agg.tmp = alloca %"class.v8::MaybeLocal.330", align 8
  %agg.tmp3 = alloca %"class.v8::Local.252", align 8
  %agg.tmp7 = alloca %"class.v8::MaybeLocal.331", align 8
  %agg.tmp8 = alloca %"struct.v8::DeserializeInternalFieldsCallback", align 8
  %ref.tmp21 = alloca %"class.v8::Maybe", align 1
  %agg.tmp22 = alloca %"class.v8::Local.316", align 8
  %cleanup.dest.slot = alloca i32, align 4
  %ref.tmp29 = alloca %"class.v8::MaybeLocal", align 8
  %agg.tmp30 = alloca %"struct.v8::DeserializeInternalFieldsCallback", align 8
  %agg.tmp31 = alloca %"class.v8::MaybeLocal.331", align 8
  %agg.tmp45 = alloca %"class.v8::Local.316", align 8
  %agg.tmp46 = alloca %"class.v8::Local.316", align 8
  %coerce.dive = getelementptr inbounds %"class.v8::Local.252", ptr %object_template, i32 0, i32 0
  %coerce.dive1 = getelementptr inbounds %"class.v8::LocalBase.253", ptr %coerce.dive, i32 0, i32 0
  %coerce.dive2 = getelementptr inbounds %"class.v8::IndirectHandleBase", ptr %coerce.dive1, i32 0, i32 0
  store ptr %object_template.coerce, ptr %coerce.dive2, align 8
  store ptr %isolate, ptr %isolate.addr, align 8
  store ptr %snapshot_data, ptr %snapshot_data.addr, align 8
  store ptr %queue, ptr %queue.addr, align 8
  %0 = load ptr, ptr %isolate.addr, align 8
  call void @_ZN2v820EscapableHandleScopeC1EPNS_7IsolateE(ptr noundef nonnull align 8 dereferenceable(32) %scope, ptr noundef %0)
  store ptr %ctx, ptr %this.addr.i, align 8
  %this1.i = load ptr, ptr %this.addr.i, align 8
  store ptr %this1.i, ptr %this.addr.i114, align 8
  %this1.i115 = load ptr, ptr %this.addr.i114, align 8
  store ptr %this1.i115, ptr %this.addr.i.i113, align 8
  %this1.i.i116 = load ptr, ptr %this.addr.i.i113, align 8
  store ptr null, ptr %this1.i.i116, align 8
  %1 = load ptr, ptr %snapshot_data.addr, align 8
  %cmp = icmp eq ptr %1, null
  br i1 %cmp, label %if.then, label %if.else

if.then:                                          ; preds = %entry
  %2 = load ptr, ptr %isolate.addr, align 8
  call void @llvm.memcpy.p0.p0.i64(ptr align 8 %agg.tmp3, ptr align 8 %object_template, i64 8, i1 false)
  %coerce.dive4 = getelementptr inbounds %"class.v8::Local.252", ptr %agg.tmp3, i32 0, i32 0
  %coerce.dive5 = getelementptr inbounds %"class.v8::LocalBase.253", ptr %coerce.dive4, i32 0, i32 0
  %coerce.dive6 = getelementptr inbounds %"class.v8::IndirectHandleBase", ptr %coerce.dive5, i32 0, i32 0
  %3 = load ptr, ptr %coerce.dive6, align 8
  store ptr %3, ptr %that.i, align 8
  store ptr %agg.tmp, ptr %this.addr.i63, align 8
  %this3.i = load ptr, ptr %this.addr.i63, align 8
  call void @llvm.memcpy.p0.p0.i64(ptr align 8 %this3.i, ptr align 8 %that.i, i64 8, i1 false)
  store ptr %agg.tmp7, ptr %this.addr.i64, align 8
  %this1.i65 = load ptr, ptr %this.addr.i64, align 8
  call void @llvm.memset.p0.i64(ptr align 8 %this1.i65, i8 0, i64 8, i1 false)
  store ptr %this1.i65, ptr %this.addr.i.i, align 8
  %this1.i.i = load ptr, ptr %this.addr.i.i, align 8
  store ptr %this1.i.i, ptr %this.addr.i96, align 8
  %this1.i97 = load ptr, ptr %this.addr.i96, align 8
  store ptr %this1.i97, ptr %this.addr.i.i95, align 8
  %this1.i.i98 = load ptr, ptr %this.addr.i.i95, align 8
  store ptr null, ptr %this1.i.i98, align 8
  call void @_ZN2v833DeserializeInternalFieldsCallbackC2EPFvNS_5LocalINS_6ObjectEEEiNS_11StartupDataEPvES5_(ptr noundef nonnull align 8 dereferenceable(16) %agg.tmp8, ptr noundef null, ptr noundef null)
  %4 = load ptr, ptr %queue.addr, align 8
  %coerce.dive9 = getelementptr inbounds %"class.v8::MaybeLocal.330", ptr %agg.tmp, i32 0, i32 0
  %coerce.dive10 = getelementptr inbounds %"class.v8::Local.252", ptr %coerce.dive9, i32 0, i32 0
  %coerce.dive11 = getelementptr inbounds %"class.v8::LocalBase.253", ptr %coerce.dive10, i32 0, i32 0
  %coerce.dive12 = getelementptr inbounds %"class.v8::IndirectHandleBase", ptr %coerce.dive11, i32 0, i32 0
  %5 = load ptr, ptr %coerce.dive12, align 8
  %coerce.dive13 = getelementptr inbounds %"class.v8::MaybeLocal.331", ptr %agg.tmp7, i32 0, i32 0
  %coerce.dive14 = getelementptr inbounds %"class.v8::Local.324", ptr %coerce.dive13, i32 0, i32 0
  %coerce.dive15 = getelementptr inbounds %"class.v8::LocalBase.325", ptr %coerce.dive14, i32 0, i32 0
  %coerce.dive16 = getelementptr inbounds %"class.v8::IndirectHandleBase", ptr %coerce.dive15, i32 0, i32 0
  %6 = load ptr, ptr %coerce.dive16, align 8
  %7 = getelementptr inbounds { ptr, ptr }, ptr %agg.tmp8, i32 0, i32 0
  %8 = load ptr, ptr %7, align 8
  %9 = getelementptr inbounds { ptr, ptr }, ptr %agg.tmp8, i32 0, i32 1
  %10 = load ptr, ptr %9, align 8
  %call = call ptr @_ZN2v87Context3NewEPNS_7IsolateEPNS_22ExtensionConfigurationENS_10MaybeLocalINS_14ObjectTemplateEEENS5_INS_5ValueEEENS_33DeserializeInternalFieldsCallbackEPNS_14MicrotaskQueueE(ptr noundef %2, ptr noundef null, ptr %5, ptr %6, ptr %8, ptr %10, ptr noundef %4)
  %coerce.dive17 = getelementptr inbounds %"class.v8::Local.316", ptr %ref.tmp, i32 0, i32 0
  %coerce.dive18 = getelementptr inbounds %"class.v8::LocalBase.317", ptr %coerce.dive17, i32 0, i32 0
  %coerce.dive19 = getelementptr inbounds %"class.v8::IndirectHandleBase", ptr %coerce.dive18, i32 0, i32 0
  store ptr %call, ptr %coerce.dive19, align 8
  call void @llvm.memcpy.p0.p0.i64(ptr align 8 %ctx, ptr align 8 %ref.tmp, i64 8, i1 false)
  store ptr %ctx, ptr %this.addr.i70, align 8
  %this1.i71 = load ptr, ptr %this.addr.i70, align 8
  %11 = load ptr, ptr %this1.i71, align 8
  %cmp.i = icmp eq ptr %11, null
  br i1 %cmp.i, label %lor.end, label %lor.rhs

lor.rhs:                                          ; preds = %if.then
  call void @llvm.memcpy.p0.p0.i64(ptr align 8 %agg.tmp22, ptr align 8 %ctx, i64 8, i1 false)
  %coerce.dive23 = getelementptr inbounds %"class.v8::Local.316", ptr %agg.tmp22, i32 0, i32 0
  %coerce.dive24 = getelementptr inbounds %"class.v8::LocalBase.317", ptr %coerce.dive23, i32 0, i32 0
  %coerce.dive25 = getelementptr inbounds %"class.v8::IndirectHandleBase", ptr %coerce.dive24, i32 0, i32 0
  %12 = load ptr, ptr %coerce.dive25, align 8
  %call26 = call i16 @_ZN4node32InitializeBaseContextForSnapshotEN2v85LocalINS0_7ContextEEE(ptr %12)
  store i16 %call26, ptr %ref.tmp21, align 1
  store ptr %ref.tmp21, ptr %this.addr.i72, align 8
  %this1.i73 = load ptr, ptr %this.addr.i72, align 8
  %13 = load i8, ptr %this1.i73, align 1
  %tobool.i = trunc i8 %13 to i1
  %lnot.i74 = xor i1 %tobool.i, true
  br label %lor.end

lor.end:                                          ; preds = %lor.rhs, %if.then
  %14 = phi i1 [ true, %if.then ], [ %lnot.i74, %lor.rhs ]
  br i1 %14, label %if.then28, label %if.end

if.then28:                                        ; preds = %lor.end
  store ptr %retval, ptr %this.addr.i76, align 8
  %this1.i77 = load ptr, ptr %this.addr.i76, align 8
  call void @llvm.memset.p0.i64(ptr align 8 %this1.i77, i8 0, i64 8, i1 false)
  store ptr %this1.i77, ptr %this.addr.i.i75, align 8
  %this1.i.i78 = load ptr, ptr %this.addr.i.i75, align 8
  store ptr %this1.i.i78, ptr %this.addr.i110, align 8
  %this1.i111 = load ptr, ptr %this.addr.i110, align 8
  store ptr %this1.i111, ptr %this.addr.i.i109, align 8
  %this1.i.i112 = load ptr, ptr %this.addr.i.i109, align 8
  store ptr null, ptr %this1.i.i112, align 8
  store i32 1, ptr %cleanup.dest.slot, align 4
  br label %cleanup

if.end:                                           ; preds = %lor.end
  br label %if.end44

if.else:                                          ; preds = %entry
  %15 = load ptr, ptr %isolate.addr, align 8
  call void @_ZN2v833DeserializeInternalFieldsCallbackC2EPFvNS_5LocalINS_6ObjectEEEiNS_11StartupDataEPvES5_(ptr noundef nonnull align 8 dereferenceable(16) %agg.tmp30, ptr noundef null, ptr noundef null)
  store ptr %agg.tmp31, ptr %this.addr.i67, align 8
  %this1.i68 = load ptr, ptr %this.addr.i67, align 8
  call void @llvm.memset.p0.i64(ptr align 8 %this1.i68, i8 0, i64 8, i1 false)
  store ptr %this1.i68, ptr %this.addr.i.i66, align 8
  %this1.i.i69 = load ptr, ptr %this.addr.i.i66, align 8
  store ptr %this1.i.i69, ptr %this.addr.i92, align 8
  %this1.i93 = load ptr, ptr %this.addr.i92, align 8
  store ptr %this1.i93, ptr %this.addr.i.i91, align 8
  %this1.i.i94 = load ptr, ptr %this.addr.i.i91, align 8
  store ptr null, ptr %this1.i.i94, align 8
  %16 = load ptr, ptr %queue.addr, align 8
  %17 = getelementptr inbounds { ptr, ptr }, ptr %agg.tmp30, i32 0, i32 0
  %18 = load ptr, ptr %17, align 8
  %19 = getelementptr inbounds { ptr, ptr }, ptr %agg.tmp30, i32 0, i32 1
  %20 = load ptr, ptr %19, align 8
  %coerce.dive32 = getelementptr inbounds %"class.v8::MaybeLocal.331", ptr %agg.tmp31, i32 0, i32 0
  %coerce.dive33 = getelementptr inbounds %"class.v8::Local.324", ptr %coerce.dive32, i32 0, i32 0
  %coerce.dive34 = getelementptr inbounds %"class.v8::LocalBase.325", ptr %coerce.dive33, i32 0, i32 0
  %coerce.dive35 = getelementptr inbounds %"class.v8::IndirectHandleBase", ptr %coerce.dive34, i32 0, i32 0
  %21 = load ptr, ptr %coerce.dive35, align 8
  %call36 = call ptr @_ZN2v87Context12FromSnapshotEPNS_7IsolateEmNS_33DeserializeInternalFieldsCallbackEPNS_22ExtensionConfigurationENS_10MaybeLocalINS_5ValueEEEPNS_14MicrotaskQueueE(ptr noundef %15, i64 noundef 0, ptr %18, ptr %20, ptr noundef null, ptr %21, ptr noundef %16)
  %coerce.dive37 = getelementptr inbounds %"class.v8::MaybeLocal", ptr %ref.tmp29, i32 0, i32 0
  %coerce.dive38 = getelementptr inbounds %"class.v8::Local.316", ptr %coerce.dive37, i32 0, i32 0
  %coerce.dive39 = getelementptr inbounds %"class.v8::LocalBase.317", ptr %coerce.dive38, i32 0, i32 0
  %coerce.dive40 = getelementptr inbounds %"class.v8::IndirectHandleBase", ptr %coerce.dive39, i32 0, i32 0
  store ptr %call36, ptr %coerce.dive40, align 8
  store ptr %ref.tmp29, ptr %this.addr.i61, align 8
  store ptr %ctx, ptr %out.addr.i, align 8
  %this1.i62 = load ptr, ptr %this.addr.i61, align 8
  %22 = load ptr, ptr %out.addr.i, align 8
  call void @llvm.memcpy.p0.p0.i64(ptr align 8 %22, ptr align 8 %this1.i62, i64 8, i1 false)
  store ptr %this1.i62, ptr %this.addr.i102, align 8
  %this1.i103 = load ptr, ptr %this.addr.i102, align 8
  store ptr %this1.i103, ptr %this.addr.i.i101, align 8
  %this1.i.i104 = load ptr, ptr %this.addr.i.i101, align 8
  %23 = load ptr, ptr %this1.i.i104, align 8
  %cmp.i.i = icmp eq ptr %23, null
  %lnot.i = xor i1 %cmp.i.i, true
  %lnot = xor i1 %lnot.i, true
  br i1 %lnot, label %if.then42, label %if.end43

if.then42:                                        ; preds = %if.else
  store ptr %retval, ptr %this.addr.i80, align 8
  %this1.i81 = load ptr, ptr %this.addr.i80, align 8
  call void @llvm.memset.p0.i64(ptr align 8 %this1.i81, i8 0, i64 8, i1 false)
  store ptr %this1.i81, ptr %this.addr.i.i79, align 8
  %this1.i.i82 = load ptr, ptr %this.addr.i.i79, align 8
  store ptr %this1.i.i82, ptr %this.addr.i106, align 8
  %this1.i107 = load ptr, ptr %this.addr.i106, align 8
  store ptr %this1.i107, ptr %this.addr.i.i105, align 8
  %this1.i.i108 = load ptr, ptr %this.addr.i.i105, align 8
  store ptr null, ptr %this1.i.i108, align 8
  store i32 1, ptr %cleanup.dest.slot, align 4
  br label %cleanup

if.end43:                                         ; preds = %if.else
  br label %if.end44

if.end44:                                         ; preds = %if.end43, %if.end
  call void @llvm.memcpy.p0.p0.i64(ptr align 8 %agg.tmp46, ptr align 8 %ctx, i64 8, i1 false)
  %coerce.dive47 = getelementptr inbounds %"class.v8::Local.316", ptr %agg.tmp46, i32 0, i32 0
  %coerce.dive48 = getelementptr inbounds %"class.v8::LocalBase.317", ptr %coerce.dive47, i32 0, i32 0
  %coerce.dive49 = getelementptr inbounds %"class.v8::IndirectHandleBase", ptr %coerce.dive48, i32 0, i32 0
  %24 = load ptr, ptr %coerce.dive49, align 8
  store ptr %24, ptr %value.i, align 8
  store ptr %scope, ptr %this.addr.i83, align 8
  %this3.i84 = load ptr, ptr %this.addr.i83, align 8
  store ptr %value.i, ptr %this.addr.i99, align 8
  %this1.i100 = load ptr, ptr %this.addr.i99, align 8
  %25 = load ptr, ptr %this1.i100, align 8
  %call4.i = call noundef ptr @_ZN2v820EscapableHandleScope6EscapeEPm(ptr noundef nonnull align 8 dereferenceable(32) %this3.i84, ptr noundef %25) #3
  store ptr %call4.i, ptr %slot.addr.i, align 8
  %26 = load ptr, ptr %slot.addr.i, align 8
  store ptr %26, ptr %slot.addr.i122, align 8
  %27 = load ptr, ptr %slot.addr.i122, align 8
  store ptr %retval.i121, ptr %this.addr.i.i120, align 8
  store ptr %27, ptr %location.addr.i.i, align 8
  %this1.i.i123 = load ptr, ptr %this.addr.i.i120, align 8
  %28 = load ptr, ptr %location.addr.i.i, align 8
  store ptr %this1.i.i123, ptr %this.addr.i.i.i, align 8
  store ptr %28, ptr %location.addr.i.i.i, align 8
  %this1.i.i.i = load ptr, ptr %this.addr.i.i.i, align 8
  %29 = load ptr, ptr %location.addr.i.i.i, align 8
  store ptr %29, ptr %this1.i.i.i, align 8
  %30 = load ptr, ptr %retval.i121, align 8
  store ptr %30, ptr %ref.tmp.i, align 8
  store ptr %retval.i118, ptr %this.addr.i.i117, align 8
  store ptr %ref.tmp.i, ptr %other.addr.i.i, align 8
  %this1.i.i119 = load ptr, ptr %this.addr.i.i117, align 8
  %31 = load ptr, ptr %other.addr.i.i, align 8
  call void @llvm.memcpy.p0.p0.i64(ptr align 8 %this1.i.i119, ptr align 8 %31, i64 8, i1 false)
  %32 = load ptr, ptr %retval.i118, align 8
  store ptr %32, ptr %retval.i, align 8
  %33 = load ptr, ptr %retval.i, align 8
  %coerce.dive51 = getelementptr inbounds %"class.v8::Local.316", ptr %agg.tmp45, i32 0, i32 0
  %coerce.dive52 = getelementptr inbounds %"class.v8::LocalBase.317", ptr %coerce.dive51, i32 0, i32 0
  %coerce.dive53 = getelementptr inbounds %"class.v8::IndirectHandleBase", ptr %coerce.dive52, i32 0, i32 0
  store ptr %33, ptr %coerce.dive53, align 8
  %coerce.dive54 = getelementptr inbounds %"class.v8::Local.316", ptr %agg.tmp45, i32 0, i32 0
  %coerce.dive55 = getelementptr inbounds %"class.v8::LocalBase.317", ptr %coerce.dive54, i32 0, i32 0
  %coerce.dive56 = getelementptr inbounds %"class.v8::IndirectHandleBase", ptr %coerce.dive55, i32 0, i32 0
  %34 = load ptr, ptr %coerce.dive56, align 8
  store ptr %34, ptr %that.i86, align 8
  store ptr %retval, ptr %this.addr.i87, align 8
  %this3.i88 = load ptr, ptr %this.addr.i87, align 8
  call void @llvm.memcpy.p0.p0.i64(ptr align 8 %this3.i88, ptr align 8 %that.i86, i64 8, i1 false)
  store i32 1, ptr %cleanup.dest.slot, align 4
  br label %cleanup

cleanup:                                          ; preds = %if.end44, %if.then42, %if.then28
  store ptr %scope, ptr %this.addr.i89, align 8
  %this1.i90 = load ptr, ptr %this.addr.i89, align 8
  call void @_ZN2v811HandleScopeD2Ev(ptr noundef nonnull align 8 dereferenceable(24) %this1.i90) #3
  %coerce.dive57 = getelementptr inbounds %"class.v8::MaybeLocal", ptr %retval, i32 0, i32 0
  %coerce.dive58 = getelementptr inbounds %"class.v8::Local.316", ptr %coerce.dive57, i32 0, i32 0
  %coerce.dive59 = getelementptr inbounds %"class.v8::LocalBase.317", ptr %coerce.dive58, i32 0, i32 0
  %coerce.dive60 = getelementptr inbounds %"class.v8::IndirectHandleBase", ptr %coerce.dive59, i32 0, i32 0
  %35 = load ptr, ptr %coerce.dive60, align 8
  ret ptr %35
}