; Function Attrs: mustprogress nounwind uwtable
define dso_local noundef ptr @_ZN4node10contextify17ContextifyContext15CreateV8ContextEPN2v87IsolateENS2_5LocalINS2_14ObjectTemplateEEEPKNS_12SnapshotDataEPNS2_14MicrotaskQueueE(ptr noundef %isolate, ptr %object_template.coerce, ptr noundef readnone %snapshot_data, ptr noundef %queue) local_unnamed_addr #3 align 2 {
entry:
  %scope = alloca %"class.v8::EscapableHandleScope", align 8
  call void @_ZN2v820EscapableHandleScopeC1EPNS_7IsolateE(ptr noundef nonnull align 8 dereferenceable(32) %scope, ptr noundef %isolate) #21
  %cmp = icmp eq ptr %snapshot_data, null
  br i1 %cmp, label %if.then, label %if.else

if.then:                                          ; preds = %entry
  %call = call ptr @_ZN2v87Context3NewEPNS_7IsolateEPNS_22ExtensionConfigurationENS_10MaybeLocalINS_14ObjectTemplateEEENS5_INS_5ValueEEENS_33DeserializeInternalFieldsCallbackEPNS_14MicrotaskQueueE(ptr noundef %isolate, ptr noundef null, ptr %object_template.coerce, ptr null, ptr null, ptr null, ptr noundef %queue) #21
  %cmp.i = icmp eq ptr %call, null
  br i1 %cmp.i, label %cleanup, label %lor.rhs

lor.rhs:                                          ; preds = %if.then
  %call26 = call i16 @_ZN4node32InitializeBaseContextForSnapshotEN2v85LocalINS0_7ContextEEE(ptr nonnull %call) #21
  %0 = and i16 %call26, 1
  %tobool.i.not = icmp eq i16 %0, 0
  br i1 %tobool.i.not, label %cleanup, label %if.end44

if.else:                                          ; preds = %entry
  %call36 = call ptr @_ZN2v87Context12FromSnapshotEPNS_7IsolateEmNS_33DeserializeInternalFieldsCallbackEPNS_22ExtensionConfigurationENS_10MaybeLocalINS_5ValueEEEPNS_14MicrotaskQueueE(ptr noundef %isolate, i64 noundef 0, ptr null, ptr null, ptr noundef null, ptr null, ptr noundef %queue) #21
  %cmp.i.i = icmp eq ptr %call36, null
  br i1 %cmp.i.i, label %cleanup, label %if.end44

if.end44:                                         ; preds = %if.else, %lor.rhs
  %ctx.sroa.0.0 = phi ptr [ %call, %lor.rhs ], [ %call36, %if.else ]
  %call4.i = call noundef ptr @_ZN2v820EscapableHandleScope6EscapeEPm(ptr noundef nonnull align 8 dereferenceable(32) %scope, ptr noundef nonnull %ctx.sroa.0.0) #21
  br label %cleanup

cleanup:                                          ; preds = %if.else, %lor.rhs, %if.then, %if.end44
  %retval.sroa.0.0 = phi ptr [ %call4.i, %if.end44 ], [ null, %if.then ], [ null, %lor.rhs ], [ null, %if.else ]
  call void @_ZN2v811HandleScopeD2Ev(ptr noundef nonnull align 8 dereferenceable(24) %scope) #21
  ret ptr %retval.sroa.0.0
}